target datalayout = "e-m:e-p270:32:32-p271:32:32-p272:64:64-i64:64-i128:128-f80:128-n8:16:32:64-S128"
target triple = "x86_64-pc-linux-gnu"

@.str = private unnamed_addr constant [34 x i8] c"../openssl/crypto/asn1/tasn_enc.c\00", align 1

; Function Attrs: nounwind uwtable
define internal i32 @asn1_item_flags_i2d(ptr noundef %0, ptr noundef %1, ptr noundef %2, i32 noundef %3) #0 {
  %5 = alloca i32, align 4
  %6 = alloca ptr, align 8
  %7 = alloca ptr, align 8
  %8 = alloca ptr, align 8
  %9 = alloca i32, align 4
  %10 = alloca ptr, align 8
  %11 = alloca ptr, align 8
  %12 = alloca i32, align 4
  %13 = alloca i32, align 4
  store ptr %0, ptr %6, align 8, !tbaa !3
  store ptr %1, ptr %7, align 8, !tbaa !8
  store ptr %2, ptr %8, align 8, !tbaa !10
  store i32 %3, ptr %9, align 4, !tbaa !12
  %14 = load ptr, ptr %7, align 8, !tbaa !8
  %15 = icmp ne ptr %14, null
  br i1 %15, label %16, label %43

16:                                               ; preds = %4
  %17 = load ptr, ptr %7, align 8, !tbaa !8
  %18 = load ptr, ptr %17, align 8, !tbaa !14
  %19 = icmp eq ptr %18, null
  br i1 %19, label %20, label %43

20:                                               ; preds = %16
  call void @llvm.lifetime.start.p0(i64 8, ptr %10) #6
  call void @llvm.lifetime.start.p0(i64 8, ptr %11) #6
  call void @llvm.lifetime.start.p0(i64 4, ptr %12) #6
  %21 = load ptr, ptr %8, align 8, !tbaa !10
  %22 = load i32, ptr %9, align 4, !tbaa !12
  %23 = call i32 @ASN1_item_ex_i2d(ptr noundef %6, ptr noundef null, ptr noundef %21, i32 noundef -1, i32 noundef %22)
  store i32 %23, ptr %12, align 4, !tbaa !12
  %24 = load i32, ptr %12, align 4, !tbaa !12
  %25 = icmp sle i32 %24, 0
  br i1 %25, label %26, label %28

26:                                               ; preds = %20
  %27 = load i32, ptr %12, align 4, !tbaa !12
  store i32 %27, ptr %5, align 4
  store i32 1, ptr %13, align 4
  br label %42

28:                                               ; preds = %20
  %29 = load i32, ptr %12, align 4, !tbaa !12
  %30 = sext i32 %29 to i64
  %31 = call noalias ptr @CRYPTO_malloc(i64 noundef %30, ptr noundef @.str, i32 noundef 65)
  store ptr %31, ptr %11, align 8, !tbaa !14
  %32 = icmp eq ptr %31, null
  br i1 %32, label %33, label %34

33:                                               ; preds = %28
  store i32 -1, ptr %5, align 4
  store i32 1, ptr %13, align 4
  br label %42

34:                                               ; preds = %28
  %35 = load ptr, ptr %11, align 8, !tbaa !14
  store ptr %35, ptr %10, align 8, !tbaa !14
  %36 = load ptr, ptr %8, align 8, !tbaa !10
  %37 = load i32, ptr %9, align 4, !tbaa !12
  %38 = call i32 @ASN1_item_ex_i2d(ptr noundef %6, ptr noundef %10, ptr noundef %36, i32 noundef -1, i32 noundef %37)
  %39 = load ptr, ptr %11, align 8, !tbaa !14
  %40 = load ptr, ptr %7, align 8, !tbaa !8
  store ptr %39, ptr %40, align 8, !tbaa !14
  %41 = load i32, ptr %12, align 4, !tbaa !12
  store i32 %41, ptr %5, align 4
  store i32 1, ptr %13, align 4
  br label %42

42:                                               ; preds = %34, %33, %26
  call void @llvm.lifetime.end.p0(i64 4, ptr %12) #6
  call void @llvm.lifetime.end.p0(i64 8, ptr %11) #6
  call void @llvm.lifetime.end.p0(i64 8, ptr %10) #6
  br label %48

43:                                               ; preds = %16, %4
  %44 = load ptr, ptr %7, align 8, !tbaa !8
  %45 = load ptr, ptr %8, align 8, !tbaa !10
  %46 = load i32, ptr %9, align 4, !tbaa !12
  %47 = call i32 @ASN1_item_ex_i2d(ptr noundef %6, ptr noundef %44, ptr noundef %45, i32 noundef -1, i32 noundef %46)
  store i32 %47, ptr %5, align 4
  br label %48

48:                                               ; preds = %43, %42
  %49 = load i32, ptr %5, align 4
  ret i32 %49
}