; Function Attrs: nounwind uwtable
define internal fastcc i32 @asn1_item_flags_i2d(ptr noundef %0, ptr noundef %1, ptr noundef %2, i32 noundef range(i32 0, 2049) %3) unnamed_addr #0 {
  %5 = alloca ptr, align 8
  %6 = alloca ptr, align 8
  store ptr %0, ptr %5, align 8, !tbaa !3
  %.not = icmp eq ptr %1, null
  br i1 %.not, label %.split, label %8

.split:                                           ; preds = %4
  %7 = call i32 @ASN1_item_ex_i2d(ptr noundef nonnull %5, ptr noundef null, ptr noundef %2, i32 noundef -1, i32 noundef %3)
  br label %22

8:                                                ; preds = %4
  %9 = load ptr, ptr %1, align 8, !tbaa !8
  %10 = icmp eq ptr %9, null
  br i1 %10, label %12, label %.split16

.split16:                                         ; preds = %8
  %11 = call i32 @ASN1_item_ex_i2d(ptr noundef nonnull %5, ptr noundef nonnull %1, ptr noundef %2, i32 noundef -1, i32 noundef %3)
  br label %22

12:                                               ; preds = %8
  call void @llvm.lifetime.start.p0(i64 8, ptr nonnull %6) #8
  %13 = call i32 @ASN1_item_ex_i2d(ptr noundef nonnull %5, ptr noundef null, ptr noundef %2, i32 noundef -1, i32 noundef %3)
  %14 = icmp slt i32 %13, 1
  br i1 %14, label %21, label %15

15:                                               ; preds = %12
  %16 = zext nneg i32 %13 to i64
  %17 = call noalias ptr @CRYPTO_malloc(i64 noundef %16, ptr noundef nonnull @.str, i32 noundef 65) #8
  %18 = icmp eq ptr %17, null
  br i1 %18, label %21, label %19

19:                                               ; preds = %15
  store ptr %17, ptr %6, align 8, !tbaa !8
  %20 = call i32 @ASN1_item_ex_i2d(ptr noundef nonnull %5, ptr noundef nonnull %6, ptr noundef %2, i32 noundef -1, i32 noundef %3)
  store ptr %17, ptr %1, align 8, !tbaa !8
  br label %21

21:                                               ; preds = %15, %12, %19
  %.0 = phi i32 [ %13, %19 ], [ %13, %12 ], [ -1, %15 ]
  call void @llvm.lifetime.end.p0(i64 8, ptr nonnull %6) #8
  br label %22

22:                                               ; preds = %.split, %.split16, %21
  %.1 = phi i32 [ %.0, %21 ], [ %7, %.split ], [ %11, %.split16 ]
  ret i32 %.1
}